; Function Attrs: nounwind uwtable
define internal range(i32 -1, 1) i32 @H5HF__sect_row_free(ptr noundef %0) #0 {
  %2 = load i8, ptr @H5HF_init_g, align 1, !tbaa !3, !range !7, !noundef !8
  %3 = trunc nuw i8 %2 to i1
  %4 = load i8, ptr @H5_libterm_g, align 1, !range !7
  %5 = trunc nuw i8 %4 to i1
  %6 = xor i1 %5, true
  %7 = select i1 %3, i1 true, i1 %6
  br i1 %7, label %8, label %H5HF__sect_row_free_real.exit, !prof !9

8:                                                ; preds = %1
  %9 = getelementptr inbounds nuw i8, ptr %0, i64 24
  %10 = load ptr, ptr %9, align 8, !tbaa !26
  %11 = tail call fastcc i32 @H5HF__sect_indirect_decr(ptr noundef %10)
  %12 = icmp slt i32 %11, 0
  br i1 %12, label %13, label %17

13:                                               ; preds = %8
  %14 = load i64, ptr @H5E_HEAP_g, align 8, !tbaa !18
  %15 = load i64, ptr @H5E_CANTRELEASE_g, align 8, !tbaa !18
  %16 = tail call i32 (ptr, ptr, i32, i64, i64, ptr, ...) @H5E_printf_stack(ptr noundef nonnull @.str, ptr noundef nonnull @__func__.H5HF__sect_row_free, i32 noundef 1847, i64 noundef %14, i64 noundef %15, ptr noundef nonnull @.str.53) #13
  br label %H5HF__sect_row_free_real.exit

17:                                               ; preds = %8
  %18 = load i8, ptr @H5HF_init_g, align 1, !tbaa !3, !range !7, !noundef !8
  %19 = trunc nuw i8 %18 to i1
  %20 = load i8, ptr @H5_libterm_g, align 1, !range !7
  %21 = trunc nuw i8 %20 to i1
  %22 = xor i1 %21, true
  %23 = select i1 %19, i1 true, i1 %22
  br i1 %23, label %H5HF__sect_node_free.exit.i, label %H5HF__sect_row_free_real.exit, !prof !9

H5HF__sect_node_free.exit.i:                      ; preds = %17
  %24 = tail call ptr @H5FL_reg_free(ptr noundef nonnull @H5_H5HF_free_section_t_reg_free_list, ptr noundef nonnull %0) #13
  br label %H5HF__sect_row_free_real.exit

H5HF__sect_row_free_real.exit:                    ; preds = %H5HF__sect_node_free.exit.i, %17, %13, %1
  %.0 = phi i32 [ -1, %13 ], [ 0, %1 ], [ 0, %17 ], [ 0, %H5HF__sect_node_free.exit.i ]
  ret i32 %.0
}